target datalayout = "e-m:e-p270:32:32-p271:32:32-p272:64:64-i64:64-i128:128-f80:128-n8:16:32:64-S128"
target triple = "x86_64-pc-linux-gnu"

%struct._object = type { %union.anon, ptr }
%union.anon = type { i64 }
%struct.PyVarObject = type { %struct._object, i64 }
%struct._typeobject = type { %struct.PyVarObject, ptr, i64, i64, ptr, i64, ptr, ptr, ptr, ptr, ptr, ptr, ptr, ptr, ptr, ptr, ptr, ptr, ptr, i64, ptr, ptr, ptr, ptr, i64, ptr, ptr, ptr, ptr, ptr, ptr, ptr, ptr, ptr, i64, ptr, ptr, ptr, ptr, ptr, ptr, ptr, ptr, ptr, ptr, ptr, i32, ptr, ptr, i8, i16 }
%struct.PyFloatObject = type { %struct._object, double }

@_Py_NoneStruct = external global %struct._object, align 8
@PyExc_ValueError = external global ptr, align 8
@PyFloat_Type = external global %struct._typeobject, align 8
@.str.126 = private unnamed_addr constant [42 x i8] c"switch interval must be strictly positive\00", align 1

; Function Attrs: inlinehint nounwind uwtable
define internal ptr @_Py_TYPE(ptr noundef %0) #3 {
  %2 = alloca ptr, align 8
  store ptr %0, ptr %2, align 8, !tbaa !9
  %3 = load ptr, ptr %2, align 8, !tbaa !9
  %4 = getelementptr inbounds nuw %struct._object, ptr %3, i32 0, i32 1
  %5 = load ptr, ptr %4, align 8, !tbaa !206
  ret ptr %5
}

; Function Attrs: nounwind uwtable
define internal ptr @sys_setswitchinterval_impl(ptr noundef %0, double noundef %1) #0 {
  %3 = alloca ptr, align 8
  %4 = alloca ptr, align 8
  %5 = alloca double, align 8
  store ptr %0, ptr %4, align 8, !tbaa !9
  store double %1, ptr %5, align 8, !tbaa !280
  %6 = load double, ptr %5, align 8, !tbaa !280
  %7 = fcmp ole double %6, 0.000000e+00
  br i1 %7, label %8, label %10

8:                                                ; preds = %2
  %9 = load ptr, ptr @PyExc_ValueError, align 8, !tbaa !9
  call void @PyErr_SetString(ptr noundef %9, ptr noundef @.str.126)
  store ptr null, ptr %3, align 8
  br label %14

10:                                               ; preds = %2
  %11 = load double, ptr %5, align 8, !tbaa !280
  %12 = fmul double 1.000000e+06, %11
  %13 = fptoui double %12 to i64
  call void @_PyEval_SetSwitchInterval(i64 noundef %13)
  store ptr @_Py_NoneStruct, ptr %3, align 8
  br label %14

14:                                               ; preds = %10, %8
  %15 = load ptr, ptr %3, align 8
  ret ptr %15
}

; Function Attrs: inlinehint nounwind uwtable
define internal double @PyFloat_AS_DOUBLE(ptr noundef %0) #3 {
  %2 = alloca ptr, align 8
  store ptr %0, ptr %2, align 8, !tbaa !9
  %3 = load ptr, ptr %2, align 8, !tbaa !9
  %4 = getelementptr inbounds nuw %struct.PyFloatObject, ptr %3, i32 0, i32 1
  %5 = load double, ptr %4, align 8, !tbaa !302
  ret double %5
}

; Function Attrs: inlinehint nounwind uwtable
define internal i32 @Py_IS_TYPE(ptr noundef %0, ptr noundef %1) #3 {
  %3 = alloca ptr, align 8
  %4 = alloca ptr, align 8
  store ptr %0, ptr %3, align 8, !tbaa !9
  store ptr %1, ptr %4, align 8, !tbaa !203
  %5 = load ptr, ptr %3, align 8, !tbaa !9
  %6 = call ptr @_Py_TYPE(ptr noundef %5)
  %7 = load ptr, ptr %4, align 8, !tbaa !203
  %8 = icmp eq ptr %6, %7
  %9 = zext i1 %8 to i32
  ret i32 %9
}

; Function Attrs: nounwind uwtable
define internal ptr @sys_setswitchinterval(ptr noundef %0, ptr noundef %1) #0 {
  %3 = alloca ptr, align 8
  %4 = alloca ptr, align 8
  %5 = alloca ptr, align 8
  %6 = alloca double, align 8
  store ptr %0, ptr %3, align 8, !tbaa !9
  store ptr %1, ptr %4, align 8, !tbaa !9
  call void @llvm.lifetime.start.p0(i64 8, ptr %5) #12
  store ptr null, ptr %5, align 8, !tbaa !9
  call void @llvm.lifetime.start.p0(i64 8, ptr %6) #12
  %7 = load ptr, ptr %4, align 8, !tbaa !9
  %8 = call i32 @Py_IS_TYPE(ptr noundef %7, ptr noundef @PyFloat_Type)
  %9 = icmp ne i32 %8, 0
  br i1 %9, label %10, label %13

10:                                               ; preds = %2
  %11 = load ptr, ptr %4, align 8, !tbaa !9
  %12 = call double @PyFloat_AS_DOUBLE(ptr noundef %11)
  store double %12, ptr %6, align 8, !tbaa !280
  br label %23

13:                                               ; preds = %2
  %14 = load ptr, ptr %4, align 8, !tbaa !9
  %15 = call double @PyFloat_AsDouble(ptr noundef %14)
  store double %15, ptr %6, align 8, !tbaa !280
  %16 = load double, ptr %6, align 8, !tbaa !280
  %17 = fcmp oeq double %16, -1.000000e+00
  br i1 %17, label %18, label %22

18:                                               ; preds = %13
  %19 = call ptr @PyErr_Occurred()
  %20 = icmp ne ptr %19, null
  br i1 %20, label %21, label %22

21:                                               ; preds = %18
  br label %27

22:                                               ; preds = %18, %13
  br label %23

23:                                               ; preds = %22, %10
  %24 = load ptr, ptr %3, align 8, !tbaa !9
  %25 = load double, ptr %6, align 8, !tbaa !280
  %26 = call ptr @sys_setswitchinterval_impl(ptr noundef %24, double noundef %25)
  store ptr %26, ptr %5, align 8, !tbaa !9
  br label %27

27:                                               ; preds = %23, %21
  %28 = load ptr, ptr %5, align 8, !tbaa !9
  call void @llvm.lifetime.end.p0(i64 8, ptr %6) #12
  call void @llvm.lifetime.end.p0(i64 8, ptr %5) #12
  ret ptr %28
}