; Function Attrs: nounwind uwtable
define internal noundef ptr @sys_setswitchinterval(ptr readnone captures(none) %0, ptr noundef %1) #0 {
  %3 = getelementptr i8, ptr %1, i64 8
  %.val = load ptr, ptr %3, align 8, !tbaa !96
  %.not = icmp eq ptr %.val, @PyFloat_Type
  br i1 %.not, label %4, label %6

4:                                                ; preds = %2
  %5 = getelementptr i8, ptr %1, i64 16
  %.val10 = load double, ptr %5, align 8, !tbaa !285
  br label %11

6:                                                ; preds = %2
  %7 = tail call double @PyFloat_AsDouble(ptr noundef nonnull %1) #15
  %8 = fcmp oeq double %7, -1.000000e+00
  br i1 %8, label %9, label %11

9:                                                ; preds = %6
  %10 = tail call ptr @PyErr_Occurred() #15
  %.not9 = icmp eq ptr %10, null
  br i1 %.not9, label %.thread, label %sys_setswitchinterval_impl.exit

11:                                               ; preds = %6, %4
  %.0 = phi double [ %.val10, %4 ], [ %7, %6 ]
  %12 = fcmp ugt double %.0, 0.000000e+00
  br i1 %12, label %14, label %.thread

.thread:                                          ; preds = %9, %11
  %13 = load ptr, ptr @PyExc_ValueError, align 8, !tbaa !93
  tail call void @PyErr_SetString(ptr noundef %13, ptr noundef nonnull @.str.126) #15
  br label %sys_setswitchinterval_impl.exit

14:                                               ; preds = %11
  %15 = fmul double %.0, 1.000000e+06
  %16 = fptoui double %15 to i64
  tail call void @_PyEval_SetSwitchInterval(i64 noundef %16) #15
  br label %sys_setswitchinterval_impl.exit

sys_setswitchinterval_impl.exit:                  ; preds = %14, %.thread, %9
  %.07 = phi ptr [ null, %9 ], [ null, %.thread ], [ @_Py_NoneStruct, %14 ]
  ret ptr %.07
}